; Function Attrs: nounwind uwtable
define hidden noalias noundef ptr @dfvm_value_new_hfinfo(ptr noundef %0, i1 noundef zeroext %1) local_unnamed_addr #2 {
  %3 = tail call noalias noundef dereferenceable_or_null(24) ptr @g_malloc_n(i64 noundef 1, i64 noundef 24) #12
  %4 = getelementptr inbounds nuw i8, ptr %3, i64 16
  %. = select i1 %1, i32 3, i32 2
  store i32 %., ptr %3, align 8
  store i32 0, ptr %4, align 8
  %5 = getelementptr inbounds nuw i8, ptr %3, i64 8
  store ptr %0, ptr %5, align 8
  ret ptr %3
}